
out:     file format elf32-littleriscv


Disassembly of section .text:

00010054 <main>:
   10054:	fd010113          	addi	sp,sp,-48
   10058:	02112623          	sw	ra,44(sp)
   1005c:	02812423          	sw	s0,40(sp)
   10060:	03010413          	addi	s0,sp,48
   10064:	00100793          	li	a5,1
   10068:	fef42623          	sw	a5,-20(s0)
   1006c:	00100793          	li	a5,1
   10070:	fef42423          	sw	a5,-24(s0)
   10074:	fe042223          	sw	zero,-28(s0)
   10078:	03300793          	li	a5,51
   1007c:	fef42023          	sw	a5,-32(s0)
   10080:	00100513          	li	a0,1
   10084:	310000ef          	jal	ra,10394 <input_key>
   10088:	fca42e23          	sw	a0,-36(s0)
   1008c:	00200513          	li	a0,2
   10090:	304000ef          	jal	ra,10394 <input_key>
   10094:	fca42c23          	sw	a0,-40(s0)
   10098:	fe442783          	lw	a5,-28(s0)
   1009c:	fcf42a23          	sw	a5,-44(s0)
   100a0:	fe042783          	lw	a5,-32(s0)
   100a4:	fcf42823          	sw	a5,-48(s0)
   100a8:	fdc42783          	lw	a5,-36(s0)
   100ac:	12078263          	beqz	a5,101d0 <main+0x17c>
   100b0:	fd842783          	lw	a5,-40(s0)
   100b4:	10078e63          	beqz	a5,101d0 <main+0x17c>
   100b8:	fec42703          	lw	a4,-20(s0)
   100bc:	00100793          	li	a5,1
   100c0:	04f71a63          	bne	a4,a5,10114 <main+0xc0>
   100c4:	fe842703          	lw	a4,-24(s0)
   100c8:	00100793          	li	a5,1
   100cc:	04f71463          	bne	a4,a5,10114 <main+0xc0>
   100d0:	fe042703          	lw	a4,-32(s0)
   100d4:	fe442783          	lw	a5,-28(s0)
   100d8:	40f70733          	sub	a4,a4,a5
   100dc:	00100793          	li	a5,1
   100e0:	02e7f463          	bgeu	a5,a4,10108 <main+0xb4>
   100e4:	fe042783          	lw	a5,-32(s0)
   100e8:	fff78793          	addi	a5,a5,-1
   100ec:	fef42023          	sw	a5,-32(s0)
   100f0:	fe042423          	sw	zero,-24(s0)
   100f4:	fe442783          	lw	a5,-28(s0)
   100f8:	00178793          	addi	a5,a5,1
   100fc:	fef42223          	sw	a5,-28(s0)
   10100:	fe042623          	sw	zero,-20(s0)
   10104:	0c80006f          	j	101cc <main+0x178>
   10108:	fe042623          	sw	zero,-20(s0)
   1010c:	fe042423          	sw	zero,-24(s0)
   10110:	0bc0006f          	j	101cc <main+0x178>
   10114:	fec42783          	lw	a5,-20(s0)
   10118:	04079c63          	bnez	a5,10170 <main+0x11c>
   1011c:	fe842703          	lw	a4,-24(s0)
   10120:	00100793          	li	a5,1
   10124:	04f71663          	bne	a4,a5,10170 <main+0x11c>
   10128:	fe042703          	lw	a4,-32(s0)
   1012c:	fe442783          	lw	a5,-28(s0)
   10130:	40f70733          	sub	a4,a4,a5
   10134:	00100793          	li	a5,1
   10138:	00e7fc63          	bgeu	a5,a4,10150 <main+0xfc>
   1013c:	fe042783          	lw	a5,-32(s0)
   10140:	fff78793          	addi	a5,a5,-1
   10144:	fef42023          	sw	a5,-32(s0)
   10148:	fe042423          	sw	zero,-24(s0)
   1014c:	0800006f          	j	101cc <main+0x178>
   10150:	fe042783          	lw	a5,-32(s0)
   10154:	fff78793          	addi	a5,a5,-1
   10158:	fef42023          	sw	a5,-32(s0)
   1015c:	fe042423          	sw	zero,-24(s0)
   10160:	fe442783          	lw	a5,-28(s0)
   10164:	fff78793          	addi	a5,a5,-1
   10168:	fef42223          	sw	a5,-28(s0)
   1016c:	0600006f          	j	101cc <main+0x178>
   10170:	fec42703          	lw	a4,-20(s0)
   10174:	00100793          	li	a5,1
   10178:	12f71e63          	bne	a4,a5,102b4 <main+0x260>
   1017c:	fe842783          	lw	a5,-24(s0)
   10180:	12079a63          	bnez	a5,102b4 <main+0x260>
   10184:	fe042703          	lw	a4,-32(s0)
   10188:	fe442783          	lw	a5,-28(s0)
   1018c:	40f70733          	sub	a4,a4,a5
   10190:	00100793          	li	a5,1
   10194:	00e7fc63          	bgeu	a5,a4,101ac <main+0x158>
   10198:	fe442783          	lw	a5,-28(s0)
   1019c:	00178793          	addi	a5,a5,1
   101a0:	fef42223          	sw	a5,-28(s0)
   101a4:	fe042623          	sw	zero,-20(s0)
   101a8:	10c0006f          	j	102b4 <main+0x260>
   101ac:	fe442783          	lw	a5,-28(s0)
   101b0:	00178793          	addi	a5,a5,1
   101b4:	fef42223          	sw	a5,-28(s0)
   101b8:	fe042623          	sw	zero,-20(s0)
   101bc:	fe042783          	lw	a5,-32(s0)
   101c0:	00178793          	addi	a5,a5,1
   101c4:	fef42023          	sw	a5,-32(s0)
   101c8:	0ec0006f          	j	102b4 <main+0x260>
   101cc:	0e80006f          	j	102b4 <main+0x260>
   101d0:	fdc42783          	lw	a5,-36(s0)
   101d4:	06078263          	beqz	a5,10238 <main+0x1e4>
   101d8:	fd842783          	lw	a5,-40(s0)
   101dc:	04079e63          	bnez	a5,10238 <main+0x1e4>
   101e0:	00100793          	li	a5,1
   101e4:	fef42423          	sw	a5,-24(s0)
   101e8:	fec42783          	lw	a5,-20(s0)
   101ec:	0c078663          	beqz	a5,102b8 <main+0x264>
   101f0:	fe042703          	lw	a4,-32(s0)
   101f4:	fe442783          	lw	a5,-28(s0)
   101f8:	40f70733          	sub	a4,a4,a5
   101fc:	00100793          	li	a5,1
   10200:	00e7fc63          	bgeu	a5,a4,10218 <main+0x1c4>
   10204:	fe442783          	lw	a5,-28(s0)
   10208:	00178793          	addi	a5,a5,1
   1020c:	fef42223          	sw	a5,-28(s0)
   10210:	fe042623          	sw	zero,-20(s0)
   10214:	0a40006f          	j	102b8 <main+0x264>
   10218:	fe442783          	lw	a5,-28(s0)
   1021c:	00178793          	addi	a5,a5,1
   10220:	fef42223          	sw	a5,-28(s0)
   10224:	fe042623          	sw	zero,-20(s0)
   10228:	fe042783          	lw	a5,-32(s0)
   1022c:	00178793          	addi	a5,a5,1
   10230:	fef42023          	sw	a5,-32(s0)
   10234:	0840006f          	j	102b8 <main+0x264>
   10238:	fdc42783          	lw	a5,-36(s0)
   1023c:	06079263          	bnez	a5,102a0 <main+0x24c>
   10240:	fd842783          	lw	a5,-40(s0)
   10244:	04078e63          	beqz	a5,102a0 <main+0x24c>
   10248:	00100793          	li	a5,1
   1024c:	fef42623          	sw	a5,-20(s0)
   10250:	fe842783          	lw	a5,-24(s0)
   10254:	06078263          	beqz	a5,102b8 <main+0x264>
   10258:	fe042703          	lw	a4,-32(s0)
   1025c:	fe442783          	lw	a5,-28(s0)
   10260:	40f70733          	sub	a4,a4,a5
   10264:	00100793          	li	a5,1
   10268:	00e7fc63          	bgeu	a5,a4,10280 <main+0x22c>
   1026c:	fe042783          	lw	a5,-32(s0)
   10270:	fff78793          	addi	a5,a5,-1
   10274:	fef42023          	sw	a5,-32(s0)
   10278:	fe042423          	sw	zero,-24(s0)
   1027c:	03c0006f          	j	102b8 <main+0x264>
   10280:	fe042783          	lw	a5,-32(s0)
   10284:	fff78793          	addi	a5,a5,-1
   10288:	fef42023          	sw	a5,-32(s0)
   1028c:	fe042423          	sw	zero,-24(s0)
   10290:	fe442783          	lw	a5,-28(s0)
   10294:	fff78793          	addi	a5,a5,-1
   10298:	fef42223          	sw	a5,-28(s0)
   1029c:	01c0006f          	j	102b8 <main+0x264>
   102a0:	00100793          	li	a5,1
   102a4:	fef42623          	sw	a5,-20(s0)
   102a8:	00100793          	li	a5,1
   102ac:	fef42423          	sw	a5,-24(s0)
   102b0:	0080006f          	j	102b8 <main+0x264>
   102b4:	00000013          	nop
   102b8:	fe442703          	lw	a4,-28(s0)
   102bc:	03200793          	li	a5,50
   102c0:	00e7e663          	bltu	a5,a4,102cc <main+0x278>
   102c4:	fe042783          	lw	a5,-32(s0)
   102c8:	0a079063          	bnez	a5,10368 <main+0x314>
   102cc:	00100513          	li	a0,1
   102d0:	104000ef          	jal	ra,103d4 <buzzer>
   102d4:	1f400513          	li	a0,500
   102d8:	130000ef          	jal	ra,10408 <delay>
   102dc:	00000513          	li	a0,0
   102e0:	0f4000ef          	jal	ra,103d4 <buzzer>
   102e4:	3e800513          	li	a0,1000
   102e8:	120000ef          	jal	ra,10408 <delay>
   102ec:	fe042223          	sw	zero,-28(s0)
   102f0:	03300793          	li	a5,51
   102f4:	fef42023          	sw	a5,-32(s0)
   102f8:	fe442503          	lw	a0,-28(s0)
   102fc:	174000ef          	jal	ra,10470 <display_1>
   10300:	fe042503          	lw	a0,-32(s0)
   10304:	1ac000ef          	jal	ra,104b0 <display_2>
   10308:	00100513          	li	a0,1
   1030c:	0c8000ef          	jal	ra,103d4 <buzzer>
   10310:	19000513          	li	a0,400
   10314:	0f4000ef          	jal	ra,10408 <delay>
   10318:	00000513          	li	a0,0
   1031c:	0b8000ef          	jal	ra,103d4 <buzzer>
   10320:	25800513          	li	a0,600
   10324:	0e4000ef          	jal	ra,10408 <delay>
   10328:	00100513          	li	a0,1
   1032c:	0a8000ef          	jal	ra,103d4 <buzzer>
   10330:	19000513          	li	a0,400
   10334:	0d4000ef          	jal	ra,10408 <delay>
   10338:	00000513          	li	a0,0
   1033c:	098000ef          	jal	ra,103d4 <buzzer>
   10340:	25800513          	li	a0,600
   10344:	0c4000ef          	jal	ra,10408 <delay>
   10348:	00100513          	li	a0,1
   1034c:	088000ef          	jal	ra,103d4 <buzzer>
   10350:	19000513          	li	a0,400
   10354:	0b4000ef          	jal	ra,10408 <delay>
   10358:	00000513          	li	a0,0
   1035c:	078000ef          	jal	ra,103d4 <buzzer>
   10360:	25800513          	li	a0,600
   10364:	0a4000ef          	jal	ra,10408 <delay>
   10368:	fd442703          	lw	a4,-44(s0)
   1036c:	fe442783          	lw	a5,-28(s0)
   10370:	00f70663          	beq	a4,a5,1037c <main+0x328>
   10374:	fe442503          	lw	a0,-28(s0)
   10378:	0f8000ef          	jal	ra,10470 <display_1>
   1037c:	fd042703          	lw	a4,-48(s0)
   10380:	fe042783          	lw	a5,-32(s0)
   10384:	cef70ee3          	beq	a4,a5,10080 <main+0x2c>
   10388:	fe042503          	lw	a0,-32(s0)
   1038c:	124000ef          	jal	ra,104b0 <display_2>
   10390:	cf1ff06f          	j	10080 <main+0x2c>

00010394 <input_key>:
   10394:	fd010113          	addi	sp,sp,-48
   10398:	02812623          	sw	s0,44(sp)
   1039c:	03010413          	addi	s0,sp,48
   103a0:	fca42e23          	sw	a0,-36(s0)
   103a4:	fdc42783          	lw	a5,-36(s0)
   103a8:	00479793          	slli	a5,a5,0x4
   103ac:	fef42623          	sw	a5,-20(s0)
   103b0:	fec42783          	lw	a5,-20(s0)
   103b4:	000f0e93          	mv	t4,t5
   103b8:	00fef7b3          	and	a5,t4,a5
   103bc:	fef42423          	sw	a5,-24(s0)
   103c0:	fe842783          	lw	a5,-24(s0)
   103c4:	00078513          	mv	a0,a5
   103c8:	02c12403          	lw	s0,44(sp)
   103cc:	03010113          	addi	sp,sp,48
   103d0:	00008067          	ret

000103d4 <buzzer>:
   103d4:	fd010113          	addi	sp,sp,-48
   103d8:	02812623          	sw	s0,44(sp)
   103dc:	03010413          	addi	s0,sp,48
   103e0:	fca42e23          	sw	a0,-36(s0)
   103e4:	fdc42783          	lw	a5,-36(s0)
   103e8:	00279793          	slli	a5,a5,0x2
   103ec:	fef42623          	sw	a5,-20(s0)
   103f0:	fec42783          	lw	a5,-20(s0)
   103f4:	00ff6f33          	or	t5,t5,a5
   103f8:	00000013          	nop
   103fc:	02c12403          	lw	s0,44(sp)
   10400:	03010113          	addi	sp,sp,48
   10404:	00008067          	ret

00010408 <delay>:
   10408:	fd010113          	addi	sp,sp,-48
   1040c:	02812623          	sw	s0,44(sp)
   10410:	03010413          	addi	s0,sp,48
   10414:	fca42e23          	sw	a0,-36(s0)
   10418:	fe042623          	sw	zero,-20(s0)
   1041c:	fe042423          	sw	zero,-24(s0)
   10420:	000f0e93          	mv	t4,t5
   10424:	040ef793          	andi	a5,t4,64
   10428:	fef42223          	sw	a5,-28(s0)
   1042c:	fe842703          	lw	a4,-24(s0)
   10430:	fe442783          	lw	a5,-28(s0)
   10434:	00f70c63          	beq	a4,a5,1044c <delay+0x44>
   10438:	fe442783          	lw	a5,-28(s0)
   1043c:	fef42423          	sw	a5,-24(s0)
   10440:	fec42783          	lw	a5,-20(s0)
   10444:	00178793          	addi	a5,a5,1
   10448:	fef42623          	sw	a5,-20(s0)
   1044c:	fec42783          	lw	a5,-20(s0)
   10450:	fdc42703          	lw	a4,-36(s0)
   10454:	00f70463          	beq	a4,a5,1045c <delay+0x54>
   10458:	fc9ff06f          	j	10420 <delay+0x18>
   1045c:	00000013          	nop
   10460:	00000013          	nop
   10464:	02c12403          	lw	s0,44(sp)
   10468:	03010113          	addi	sp,sp,48
   1046c:	00008067          	ret

00010470 <display_1>:
   10470:	fd010113          	addi	sp,sp,-48
   10474:	02812623          	sw	s0,44(sp)
   10478:	03010413          	addi	s0,sp,48
   1047c:	fca42e23          	sw	a0,-36(s0)
   10480:	fc0007b7          	lui	a5,0xfc000
   10484:	07078793          	addi	a5,a5,112 # fc000070 <__global_pointer$+0xfbfee380>
   10488:	fef42623          	sw	a5,-20(s0)
   1048c:	fdc42783          	lw	a5,-36(s0)
   10490:	fec42703          	lw	a4,-20(s0)
   10494:	01479513          	slli	a0,a5,0x14
   10498:	00ef7f33          	and	t5,t5,a4
   1049c:	00af6f33          	or	t5,t5,a0
   104a0:	00000013          	nop
   104a4:	02c12403          	lw	s0,44(sp)
   104a8:	03010113          	addi	sp,sp,48
   104ac:	00008067          	ret

000104b0 <display_2>:
   104b0:	fd010113          	addi	sp,sp,-48
   104b4:	02812623          	sw	s0,44(sp)
   104b8:	03010413          	addi	s0,sp,48
   104bc:	fca42e23          	sw	a0,-36(s0)
   104c0:	03f007b7          	lui	a5,0x3f00
   104c4:	07078793          	addi	a5,a5,112 # 3f00070 <__global_pointer$+0x3eee380>
   104c8:	fef42623          	sw	a5,-20(s0)
   104cc:	fdc42783          	lw	a5,-36(s0)
   104d0:	fec42703          	lw	a4,-20(s0)
   104d4:	01a79593          	slli	a1,a5,0x1a
   104d8:	00ef7f33          	and	t5,t5,a4
   104dc:	00bf6f33          	or	t5,t5,a1
   104e0:	00000013          	nop
   104e4:	02c12403          	lw	s0,44(sp)
   104e8:	03010113          	addi	sp,sp,48
   104ec:	00008067          	ret
